target datalayout = "e-m:e-p270:32:32-p271:32:32-p272:64:64-i64:64-i128:128-f80:128-n8:16:32:64-S128"
target triple = "x86_64-pc-linux-gnu"

@.str = private unnamed_addr constant [27 x i8] c"module table%d(ind, val);\0A\00", align 1
@.str.1 = private unnamed_addr constant [22 x i8] c"  input  [%d:0] ind;\0A\00", align 1
@.str.2 = private unnamed_addr constant [22 x i8] c"  output [%d:0] val;\0A\00", align 1
@.str.3 = private unnamed_addr constant [22 x i8] c"  reg    [%d:0] val;\0A\00", align 1
@.str.4 = private unnamed_addr constant [17 x i8] c"  always @(ind)\0A\00", align 1
@.str.5 = private unnamed_addr constant [9 x i8] c"  begin\0A\00", align 1
@.str.6 = private unnamed_addr constant [16 x i8] c"    case (ind)\0A\00", align 1
@.str.7 = private unnamed_addr constant [29 x i8] c"      %d'h%x: val = %d'h%x;\0A\00", align 1
@.str.8 = private unnamed_addr constant [13 x i8] c"    endcase\0A\00", align 1
@.str.9 = private unnamed_addr constant [7 x i8] c"  end\0A\00", align 1
@.str.10 = private unnamed_addr constant [11 x i8] c"endmodule\0A\00", align 1
@.str.11 = private unnamed_addr constant [2 x i8] c"\0A\00", align 1

; Function Attrs: inlinehint nounwind uwtable
define internal i64 @Abc_Tt6Mask(i32 noundef %0) #3 {
  %2 = alloca i32, align 4
  store i32 %0, ptr %2, align 4, !tbaa !8
  %3 = load i32, ptr %2, align 4, !tbaa !8
  %4 = sub nsw i32 64, %3
  %5 = zext i32 %4 to i64
  %6 = lshr i64 -1, %5
  ret i64 %6
}

; Function Attrs: nounwind uwtable
define void @Wln_WriteTableOne(ptr noundef %0, i32 noundef %1, i32 noundef %2, ptr noundef %3, i32 noundef %4) #0 {
  %6 = alloca ptr, align 8
  %7 = alloca i32, align 4
  %8 = alloca i32, align 4
  %9 = alloca ptr, align 8
  %10 = alloca i32, align 4
  %11 = alloca i32, align 4
  %12 = alloca i32, align 4
  store ptr %0, ptr %6, align 8, !tbaa !3
  store i32 %1, ptr %7, align 4, !tbaa !8
  store i32 %2, ptr %8, align 4, !tbaa !8
  store ptr %3, ptr %9, align 8, !tbaa !10
  store i32 %4, ptr %10, align 4, !tbaa !8
  call void @llvm.lifetime.start.p0(i64 4, ptr %11) #9
  call void @llvm.lifetime.start.p0(i64 4, ptr %12) #9
  %13 = load i32, ptr %7, align 4, !tbaa !8
  %14 = shl i32 1, %13
  store i32 %14, ptr %12, align 4, !tbaa !8
  %15 = load ptr, ptr %6, align 8, !tbaa !3
  %16 = load i32, ptr %10, align 4, !tbaa !8
  %17 = call i32 (ptr, ptr, ...) @fprintf(ptr noundef %15, ptr noundef @.str, i32 noundef %16) #9
  %18 = load ptr, ptr %6, align 8, !tbaa !3
  %19 = load i32, ptr %7, align 4, !tbaa !8
  %20 = sub nsw i32 %19, 1
  %21 = call i32 (ptr, ptr, ...) @fprintf(ptr noundef %18, ptr noundef @.str.1, i32 noundef %20) #9
  %22 = load ptr, ptr %6, align 8, !tbaa !3
  %23 = load i32, ptr %8, align 4, !tbaa !8
  %24 = sub nsw i32 %23, 1
  %25 = call i32 (ptr, ptr, ...) @fprintf(ptr noundef %22, ptr noundef @.str.2, i32 noundef %24) #9
  %26 = load ptr, ptr %6, align 8, !tbaa !3
  %27 = load i32, ptr %8, align 4, !tbaa !8
  %28 = sub nsw i32 %27, 1
  %29 = call i32 (ptr, ptr, ...) @fprintf(ptr noundef %26, ptr noundef @.str.3, i32 noundef %28) #9
  %30 = load ptr, ptr %6, align 8, !tbaa !3
  %31 = call i32 (ptr, ptr, ...) @fprintf(ptr noundef %30, ptr noundef @.str.4) #9
  %32 = load ptr, ptr %6, align 8, !tbaa !3
  %33 = call i32 (ptr, ptr, ...) @fprintf(ptr noundef %32, ptr noundef @.str.5) #9
  %34 = load ptr, ptr %6, align 8, !tbaa !3
  %35 = call i32 (ptr, ptr, ...) @fprintf(ptr noundef %34, ptr noundef @.str.6) #9
  store i32 0, ptr %11, align 4, !tbaa !8
  br label %36

36:                                               ; preds = %64, %5
  %37 = load i32, ptr %11, align 4, !tbaa !8
  %38 = load i32, ptr %12, align 4, !tbaa !8
  %39 = icmp slt i32 %37, %38
  br i1 %39, label %40, label %67

40:                                               ; preds = %36
  %41 = load ptr, ptr %6, align 8, !tbaa !3
  %42 = load i32, ptr %7, align 4, !tbaa !8
  %43 = load i32, ptr %11, align 4, !tbaa !8
  %44 = load i32, ptr %8, align 4, !tbaa !8
  %45 = load ptr, ptr %9, align 8, !tbaa !10
  %46 = load i32, ptr %8, align 4, !tbaa !8
  %47 = load i32, ptr %11, align 4, !tbaa !8
  %48 = mul nsw i32 %46, %47
  %49 = ashr i32 %48, 6
  %50 = sext i32 %49 to i64
  %51 = getelementptr inbounds i64, ptr %45, i64 %50
  %52 = load i64, ptr %51, align 8, !tbaa !12
  %53 = load i32, ptr %8, align 4, !tbaa !8
  %54 = load i32, ptr %11, align 4, !tbaa !8
  %55 = mul nsw i32 %53, %54
  %56 = and i32 %55, 63
  %57 = zext i32 %56 to i64
  %58 = lshr i64 %52, %57
  %59 = load i32, ptr %8, align 4, !tbaa !8
  %60 = call i64 @Abc_Tt6Mask(i32 noundef %59)
  %61 = and i64 %58, %60
  %62 = trunc i64 %61 to i32
  %63 = call i32 (ptr, ptr, ...) @fprintf(ptr noundef %41, ptr noundef @.str.7, i32 noundef %42, i32 noundef %43, i32 noundef %44, i32 noundef %62) #9
  br label %64

64:                                               ; preds = %40
  %65 = load i32, ptr %11, align 4, !tbaa !8
  %66 = add nsw i32 %65, 1
  store i32 %66, ptr %11, align 4, !tbaa !8
  br label %36, !llvm.loop !14

67:                                               ; preds = %36
  %68 = load ptr, ptr %6, align 8, !tbaa !3
  %69 = call i32 (ptr, ptr, ...) @fprintf(ptr noundef %68, ptr noundef @.str.8) #9
  %70 = load ptr, ptr %6, align 8, !tbaa !3
  %71 = call i32 (ptr, ptr, ...) @fprintf(ptr noundef %70, ptr noundef @.str.9) #9
  %72 = load ptr, ptr %6, align 8, !tbaa !3
  %73 = call i32 (ptr, ptr, ...) @fprintf(ptr noundef %72, ptr noundef @.str.10) #9
  %74 = load ptr, ptr %6, align 8, !tbaa !3
  %75 = call i32 (ptr, ptr, ...) @fprintf(ptr noundef %74, ptr noundef @.str.11) #9
  call void @llvm.lifetime.end.p0(i64 4, ptr %12) #9
  call void @llvm.lifetime.end.p0(i64 4, ptr %11) #9
  ret void
}