; Function Attrs: nofree nounwind uwtable
define void @Wln_WriteTableOne(ptr noundef captures(none) %0, i32 noundef %1, i32 noundef %2, ptr noundef readonly captures(none) %3, i32 noundef %4) local_unnamed_addr #0 {
  %6 = tail call i32 (ptr, ptr, ...) @fprintf(ptr noundef %0, ptr noundef nonnull @.str, i32 noundef %4) #12
  %7 = add nsw i32 %1, -1
  %8 = tail call i32 (ptr, ptr, ...) @fprintf(ptr noundef %0, ptr noundef nonnull @.str.1, i32 noundef %7) #12
  %9 = add nsw i32 %2, -1
  %10 = tail call i32 (ptr, ptr, ...) @fprintf(ptr noundef %0, ptr noundef nonnull @.str.2, i32 noundef %9) #12
  %11 = tail call i32 (ptr, ptr, ...) @fprintf(ptr noundef %0, ptr noundef nonnull @.str.3, i32 noundef %9) #12
  %12 = tail call i64 @fwrite(ptr nonnull @.str.4, i64 16, i64 1, ptr %0)
  %13 = tail call i64 @fwrite(ptr nonnull @.str.5, i64 8, i64 1, ptr %0)
  %14 = tail call i64 @fwrite(ptr nonnull @.str.6, i64 15, i64 1, ptr %0)
  %.not = icmp eq i32 %1, 31
  br i1 %.not, label %._crit_edge, label %.lr.ph

.lr.ph:                                           ; preds = %5
  %15 = shl nuw nsw i32 1, %1
  %16 = sub nsw i32 64, %2
  %17 = zext nneg i32 %16 to i64
  %18 = lshr i64 -1, %17
  br label %19

19:                                               ; preds = %.lr.ph, %19
  %.028 = phi i32 [ 0, %.lr.ph ], [ %31, %19 ]
  %20 = mul nsw i32 %.028, %2
  %21 = ashr i32 %20, 6
  %22 = sext i32 %21 to i64
  %23 = getelementptr inbounds i64, ptr %3, i64 %22
  %24 = load i64, ptr %23, align 8, !tbaa !3
  %25 = and i32 %20, 63
  %26 = zext nneg i32 %25 to i64
  %27 = lshr i64 %24, %26
  %28 = and i64 %27, %18
  %29 = trunc i64 %28 to i32
  %30 = tail call i32 (ptr, ptr, ...) @fprintf(ptr noundef %0, ptr noundef nonnull @.str.7, i32 noundef %1, i32 noundef %.028, i32 noundef %2, i32 noundef %29) #12
  %31 = add nuw nsw i32 %.028, 1
  %exitcond.not = icmp eq i32 %31, %15
  br i1 %exitcond.not, label %._crit_edge, label %19, !llvm.loop !7

._crit_edge:                                      ; preds = %19, %5
  %32 = tail call i64 @fwrite(ptr nonnull @.str.8, i64 12, i64 1, ptr %0)
  %33 = tail call i64 @fwrite(ptr nonnull @.str.9, i64 6, i64 1, ptr %0)
  %34 = tail call i64 @fwrite(ptr nonnull @.str.10, i64 10, i64 1, ptr %0)
  %fputc = tail call i32 @fputc(i32 10, ptr %0)
  ret void
}